; Function Attrs: mustprogress uwtable
define void @_ZN5draco37SequentialAttributeDecodersControllerC2ESt10unique_ptrINS_15PointsSequencerESt14default_deleteIS2_EE(ptr noundef nonnull align 8 dereferenceable(128) %0, ptr nocapture noundef %1) unnamed_addr #3 align 2 {
  tail call void @_ZN5draco17AttributesDecoderC2Ev(ptr noundef nonnull align 8 dereferenceable(72) %0)
  store ptr getelementptr inbounds ({ [15 x ptr] }, ptr @_ZTVN5draco37SequentialAttributeDecodersControllerE, i64 0, i32 0, i64 2), ptr %0, align 8
  %3 = getelementptr inbounds i8, ptr %0, i64 72
  %4 = getelementptr inbounds i8, ptr %0, i64 120
  tail call void @llvm.memset.p0.i64(ptr noundef nonnull align 8 dereferenceable(48) %3, i8 0, i64 48, i1 false)
  %5 = load i64, ptr %1, align 8
  store i64 %5, ptr %4, align 8
  store ptr null, ptr %1, align 8
  ret void
}